target datalayout = "e-m:e-p270:32:32-p271:32:32-p272:64:64-i64:64-i128:128-f80:128-n8:16:32:64-S128"
target triple = "x86_64-pc-linux-gnu"

%struct.IDAMemRec = type { double, ptr, ptr, i32, double, double, ptr, i32, ptr, ptr, i32, ptr, ptr, i32, i32, double, double, ptr, i32, i32, i32, ptr, ptr, i32, ptr, ptr, ptr, i32, double, i32, i32, double, ptr, ptr, i32, ptr, ptr, i32, i32, i32, double, ptr, ptr, [6 x ptr], [6 x double], [6 x double], [6 x double], [6 x double], [6 x double], ptr, ptr, ptr, ptr, ptr, ptr, ptr, ptr, ptr, ptr, ptr, ptr, ptr, ptr, ptr, [6 x ptr], ptr, ptr, ptr, ptr, [6 x ptr], ptr, ptr, ptr, ptr, ptr, ptr, ptr, ptr, ptr, ptr, ptr, ptr, ptr, ptr, [6 x ptr], ptr, ptr, ptr, ptr, ptr, double, ptr, ptr, i32, i32, i32, i32, i32, i32, i32, double, double, double, i32, double, i32, i32, i32, i32, double, double, double, double, double, double, double, double, double, double, double, double, double, double, i32, i32, i32, i32, i32, i64, double, i32, i64, i64, i64, i64, i64, i64, i64, i64, i64, i64, i64, i64, i64, i64, i64, i64, i64, i64, i64, i64, i64, i64, i64, i64, ptr, ptr, ptr, i32, i32, i32, i32, i32, i32, i32, i32, i32, i32, i32, i32, i32, ptr, ptr, ptr, ptr, ptr, ptr, i32, i32, i32, i32, i32, i32, double, double, double, ptr, i32, ptr, ptr, double, double, double, ptr, ptr, ptr, double, double, i32, i32, i64, ptr, i32, i32, ptr, i32 }

@.str = private unnamed_addr constant [5 x i8] c"IDAS\00", align 1
@.str.4 = private unnamed_addr constant [24 x i8] c"ida_mem = NULL illegal.\00", align 1
@.str.10 = private unnamed_addr constant [34 x i8] c"Attempt to call before IDAMalloc.\00", align 1
@.str.15 = private unnamed_addr constant [16 x i8] c"IDAWFtolerances\00", align 1

; Function Attrs: nounwind uwtable
define i32 @IDAWFtolerances(ptr noundef %0, ptr noundef %1) #0 {
  %3 = alloca i32, align 4
  %4 = alloca ptr, align 8
  %5 = alloca ptr, align 8
  %6 = alloca ptr, align 8
  %7 = alloca i32, align 4
  store ptr %0, ptr %4, align 8, !tbaa !91
  store ptr %1, ptr %5, align 8, !tbaa !91
  call void @llvm.lifetime.start.p0(i64 8, ptr %6) #8
  %8 = load ptr, ptr %4, align 8, !tbaa !91
  %9 = icmp eq ptr %8, null
  br i1 %9, label %10, label %11

10:                                               ; preds = %2
  call void (ptr, i32, ptr, ptr, ptr, ...) @IDAProcessError(ptr noundef null, i32 noundef -20, ptr noundef @.str, ptr noundef @.str.15, ptr noundef @.str.4)
  store i32 -20, ptr %3, align 4
  store i32 1, ptr %7, align 4
  br label %29

11:                                               ; preds = %2
  %12 = load ptr, ptr %4, align 8, !tbaa !91
  store ptr %12, ptr %6, align 8, !tbaa !3
  %13 = load ptr, ptr %6, align 8, !tbaa !3
  %14 = getelementptr inbounds nuw %struct.IDAMemRec, ptr %13, i32 0, i32 162
  %15 = load i32, ptr %14, align 8, !tbaa !78
  %16 = icmp eq i32 %15, 0
  br i1 %16, label %17, label %19

17:                                               ; preds = %11
  %18 = load ptr, ptr %6, align 8, !tbaa !3
  call void (ptr, i32, ptr, ptr, ptr, ...) @IDAProcessError(ptr noundef %18, i32 noundef -23, ptr noundef @.str, ptr noundef @.str.15, ptr noundef @.str.10)
  store i32 -23, ptr %3, align 4
  store i32 1, ptr %7, align 4
  br label %29

19:                                               ; preds = %11
  %20 = load ptr, ptr %6, align 8, !tbaa !3
  %21 = getelementptr inbounds nuw %struct.IDAMemRec, ptr %20, i32 0, i32 3
  store i32 3, ptr %21, align 8, !tbaa !21
  %22 = load ptr, ptr %6, align 8, !tbaa !3
  %23 = getelementptr inbounds nuw %struct.IDAMemRec, ptr %22, i32 0, i32 7
  store i32 1, ptr %23, align 8, !tbaa !22
  %24 = load ptr, ptr %5, align 8, !tbaa !91
  %25 = load ptr, ptr %6, align 8, !tbaa !3
  %26 = getelementptr inbounds nuw %struct.IDAMemRec, ptr %25, i32 0, i32 8
  store ptr %24, ptr %26, align 8, !tbaa !23
  %27 = load ptr, ptr %6, align 8, !tbaa !3
  %28 = getelementptr inbounds nuw %struct.IDAMemRec, ptr %27, i32 0, i32 9
  store ptr null, ptr %28, align 8, !tbaa !24
  store i32 0, ptr %3, align 4
  store i32 1, ptr %7, align 4
  br label %29

29:                                               ; preds = %19, %17, %10
  call void @llvm.lifetime.end.p0(i64 8, ptr %6) #8
  %30 = load i32, ptr %3, align 4
  ret i32 %30
}